target datalayout = "e-m:e-p270:32:32-p271:32:32-p272:64:64-i64:64-i128:128-f80:128-n8:16:32:64-S128"
target triple = "x86_64-pc-linux-gnu"

%struct.cl_cvd = type { ptr, i32, i32, i32, ptr, ptr, ptr, i32 }

@.str.48 = private unnamed_addr constant [38 x i8] c"cli_cvdverify: Can't read CVD header\0A\00", align 1
@.str.49 = private unnamed_addr constant [52 x i8] c"cli_cvdverify: Cannot generate hash, out of memory\0A\00", align 1
@.str.50 = private unnamed_addr constant [19 x i8] c"MD5(.tar.gz) = %s\0A\00", align 1
@.str.51 = private unnamed_addr constant [39 x i8] c"cli_cvdverify: MD5 verification error\0A\00", align 1
@.str.52 = private unnamed_addr constant [53 x i8] c"cli_cvdverify: Digital signature verification error\0A\00", align 1

; Function Attrs: nounwind uwtable
define internal i32 @cli_cvdverify(ptr noundef %0, ptr noundef %1, i32 noundef %2) #0 {
  %4 = alloca i32, align 4
  %5 = alloca ptr, align 8
  %6 = alloca ptr, align 8
  %7 = alloca i32, align 4
  %8 = alloca ptr, align 8
  %9 = alloca ptr, align 8
  %10 = alloca [513 x i8], align 16
  %11 = alloca i32, align 4
  %12 = alloca i32, align 4
  store ptr %0, ptr %5, align 8, !tbaa !20
  store ptr %1, ptr %6, align 8, !tbaa !8
  store i32 %2, ptr %7, align 4, !tbaa !22
  call void @llvm.lifetime.start.p0(i64 8, ptr %8) #11
  call void @llvm.lifetime.start.p0(i64 8, ptr %9) #11
  call void @llvm.lifetime.start.p0(i64 513, ptr %10) #11
  call void @llvm.lifetime.start.p0(i64 4, ptr %11) #11
  %13 = load ptr, ptr %5, align 8, !tbaa !20
  %14 = call i32 @fseek(ptr noundef %13, i64 noundef 0, i32 noundef 0)
  %15 = getelementptr inbounds [513 x i8], ptr %10, i64 0, i64 0
  %16 = load ptr, ptr %5, align 8, !tbaa !20
  %17 = call i64 @fread(ptr noundef %15, i64 noundef 1, i64 noundef 512, ptr noundef %16)
  %18 = icmp ne i64 %17, 512
  br i1 %18, label %19, label %20

19:                                               ; preds = %3
  call void (ptr, ...) @cli_errmsg(ptr noundef @.str.48)
  store i32 5, ptr %4, align 4
  store i32 1, ptr %12, align 4
  br label %97

20:                                               ; preds = %3
  %21 = getelementptr inbounds [513 x i8], ptr %10, i64 0, i64 512
  store i8 0, ptr %21, align 16, !tbaa !23
  store i32 511, ptr %11, align 4, !tbaa !22
  br label %22

22:                                               ; preds = %44, %20
  %23 = load i32, ptr %11, align 4, !tbaa !22
  %24 = icmp sgt i32 %23, 0
  br i1 %24, label %25, label %41

25:                                               ; preds = %22
  %26 = load i32, ptr %11, align 4, !tbaa !22
  %27 = sext i32 %26 to i64
  %28 = getelementptr inbounds [513 x i8], ptr %10, i64 0, i64 %27
  %29 = load i8, ptr %28, align 1, !tbaa !23
  %30 = sext i8 %29 to i32
  %31 = icmp eq i32 %30, 32
  br i1 %31, label %39, label %32

32:                                               ; preds = %25
  %33 = load i32, ptr %11, align 4, !tbaa !22
  %34 = sext i32 %33 to i64
  %35 = getelementptr inbounds [513 x i8], ptr %10, i64 0, i64 %34
  %36 = load i8, ptr %35, align 1, !tbaa !23
  %37 = sext i8 %36 to i32
  %38 = icmp eq i32 %37, 10
  br label %39

39:                                               ; preds = %32, %25
  %40 = phi i1 [ true, %25 ], [ %38, %32 ]
  br label %41

41:                                               ; preds = %39, %22
  %42 = phi i1 [ false, %22 ], [ %40, %39 ]
  br i1 %42, label %43, label %50

43:                                               ; preds = %41
  br label %44

44:                                               ; preds = %43
  %45 = load i32, ptr %11, align 4, !tbaa !22
  %46 = sext i32 %45 to i64
  %47 = getelementptr inbounds [513 x i8], ptr %10, i64 0, i64 %46
  store i8 0, ptr %47, align 1, !tbaa !23
  %48 = load i32, ptr %11, align 4, !tbaa !22
  %49 = add nsw i32 %48, -1
  store i32 %49, ptr %11, align 4, !tbaa !22
  br label %22

50:                                               ; preds = %41
  %51 = getelementptr inbounds [513 x i8], ptr %10, i64 0, i64 0
  %52 = call ptr @cl_cvdparse(ptr noundef %51)
  store ptr %52, ptr %8, align 8, !tbaa !8
  %53 = icmp eq ptr %52, null
  br i1 %53, label %54, label %55

54:                                               ; preds = %50
  store i32 5, ptr %4, align 4
  store i32 1, ptr %12, align 4
  br label %97

55:                                               ; preds = %50
  %56 = load ptr, ptr %6, align 8, !tbaa !8
  %57 = icmp ne ptr %56, null
  br i1 %57, label %58, label %61

58:                                               ; preds = %55
  %59 = load ptr, ptr %6, align 8, !tbaa !8
  %60 = load ptr, ptr %8, align 8, !tbaa !8
  call void @llvm.memcpy.p0.p0.i64(ptr align 8 %59, ptr align 8 %60, i64 56, i1 false)
  br label %61

61:                                               ; preds = %58, %55
  %62 = load i32, ptr %7, align 4, !tbaa !22
  %63 = icmp ne i32 %62, 0
  br i1 %63, label %64, label %66

64:                                               ; preds = %61
  %65 = load ptr, ptr %8, align 8, !tbaa !8
  call void @cl_cvdfree(ptr noundef %65)
  store i32 0, ptr %4, align 4
  store i32 1, ptr %12, align 4
  br label %97

66:                                               ; preds = %61
  %67 = load ptr, ptr %5, align 8, !tbaa !20
  %68 = call ptr @cli_hashstream(ptr noundef %67, ptr noundef null, i32 noundef 1)
  store ptr %68, ptr %9, align 8, !tbaa !3
  %69 = load ptr, ptr %9, align 8, !tbaa !3
  %70 = icmp eq ptr %69, null
  br i1 %70, label %71, label %73

71:                                               ; preds = %66
  call void (ptr, ...) @cli_dbgmsg(ptr noundef @.str.49)
  %72 = load ptr, ptr %8, align 8, !tbaa !8
  call void @cl_cvdfree(ptr noundef %72)
  store i32 20, ptr %4, align 4
  store i32 1, ptr %12, align 4
  br label %97

73:                                               ; preds = %66
  %74 = load ptr, ptr %9, align 8, !tbaa !3
  call void (ptr, ...) @cli_dbgmsg(ptr noundef @.str.50, ptr noundef %74)
  %75 = load ptr, ptr %9, align 8, !tbaa !3
  %76 = load ptr, ptr %8, align 8, !tbaa !8
  %77 = getelementptr inbounds nuw %struct.cl_cvd, ptr %76, i32 0, i32 4
  %78 = load ptr, ptr %77, align 8, !tbaa !16
  %79 = call i32 @strncmp(ptr noundef %75, ptr noundef %78, i64 noundef 32) #12
  %80 = icmp ne i32 %79, 0
  br i1 %80, label %81, label %84

81:                                               ; preds = %73
  call void (ptr, ...) @cli_dbgmsg(ptr noundef @.str.51)
  %82 = load ptr, ptr %9, align 8, !tbaa !3
  call void @free(ptr noundef %82) #11
  %83 = load ptr, ptr %8, align 8, !tbaa !8
  call void @cl_cvdfree(ptr noundef %83)
  store i32 6, ptr %4, align 4
  store i32 1, ptr %12, align 4
  br label %97

84:                                               ; preds = %73
  %85 = load ptr, ptr %9, align 8, !tbaa !3
  %86 = load ptr, ptr %8, align 8, !tbaa !8
  %87 = getelementptr inbounds nuw %struct.cl_cvd, ptr %86, i32 0, i32 5
  %88 = load ptr, ptr %87, align 8, !tbaa !17
  %89 = call i32 @cli_versig(ptr noundef %85, ptr noundef %88)
  %90 = icmp ne i32 %89, 0
  br i1 %90, label %91, label %94

91:                                               ; preds = %84
  call void (ptr, ...) @cli_dbgmsg(ptr noundef @.str.52)
  %92 = load ptr, ptr %9, align 8, !tbaa !3
  call void @free(ptr noundef %92) #11
  %93 = load ptr, ptr %8, align 8, !tbaa !8
  call void @cl_cvdfree(ptr noundef %93)
  store i32 6, ptr %4, align 4
  store i32 1, ptr %12, align 4
  br label %97

94:                                               ; preds = %84
  %95 = load ptr, ptr %9, align 8, !tbaa !3
  call void @free(ptr noundef %95) #11
  %96 = load ptr, ptr %8, align 8, !tbaa !8
  call void @cl_cvdfree(ptr noundef %96)
  store i32 0, ptr %4, align 4
  store i32 1, ptr %12, align 4
  br label %97

97:                                               ; preds = %94, %91, %81, %71, %64, %54, %19
  call void @llvm.lifetime.end.p0(i64 4, ptr %11) #11
  call void @llvm.lifetime.end.p0(i64 513, ptr %10) #11
  call void @llvm.lifetime.end.p0(i64 8, ptr %9) #11
  call void @llvm.lifetime.end.p0(i64 8, ptr %8) #11
  %98 = load i32, ptr %4, align 4
  ret i32 %98
}