; Function Attrs: nounwind uwtable
define internal fastcc range(i32 0, 21) i32 @cli_cvdverify(ptr noundef %0, ptr noundef writeonly %1, i32 noundef %2) unnamed_addr #0 {
  %4 = alloca [513 x i8], align 16
  call void @llvm.lifetime.start.p0(i64 513, ptr nonnull %4) #19
  %5 = tail call i32 @fseek(ptr noundef %0, i64 noundef 0, i32 noundef 0)
  %6 = call i64 @fread(ptr noundef nonnull %4, i64 noundef 1, i64 noundef 512, ptr noundef %0)
  %.not = icmp eq i64 %6, 512
  br i1 %.not, label %8, label %7

7:                                                ; preds = %3
  tail call void (ptr, ...) @cli_errmsg(ptr noundef nonnull @.str.48) #19
  br label %54

8:                                                ; preds = %3
  %9 = getelementptr inbounds nuw i8, ptr %4, i64 512
  store i8 0, ptr %9, align 16, !tbaa !17
  br label %10

10:                                               ; preds = %8, %.critedge2
  %indvars.iv = phi i64 [ 511, %8 ], [ %indvars.iv.next, %.critedge2 ]
  %11 = getelementptr inbounds nuw [513 x i8], ptr %4, i64 0, i64 %indvars.iv
  %12 = load i8, ptr %11, align 1, !tbaa !17
  switch i8 %12, label %.critedge [
    i8 32, label %.critedge2
    i8 10, label %.critedge2
  ]

.critedge2:                                       ; preds = %10, %10
  store i8 0, ptr %11, align 1, !tbaa !17
  %indvars.iv.next = add nsw i64 %indvars.iv, -1
  %13 = icmp ugt i64 %indvars.iv, 1
  br i1 %13, label %10, label %.critedge

.critedge:                                        ; preds = %10, %.critedge2
  %14 = call ptr @cl_cvdparse(ptr noundef nonnull %4)
  %15 = icmp eq ptr %14, null
  br i1 %15, label %54, label %16

16:                                               ; preds = %.critedge
  %.not33 = icmp eq ptr %1, null
  br i1 %.not33, label %18, label %17

17:                                               ; preds = %16
  call void @llvm.memcpy.p0.p0.i64(ptr noundef nonnull align 8 dereferenceable(56) %1, ptr noundef nonnull align 8 dereferenceable(56) %14, i64 56, i1 false)
  br label %18

18:                                               ; preds = %17, %16
  %.not34 = icmp eq i32 %2, 0
  br i1 %.not34, label %27, label %19

19:                                               ; preds = %18
  %20 = load ptr, ptr %14, align 8, !tbaa !3
  call void @free(ptr noundef %20) #19
  %21 = getelementptr inbounds nuw i8, ptr %14, i64 24
  %22 = load ptr, ptr %21, align 8, !tbaa !13
  call void @free(ptr noundef %22) #19
  %23 = getelementptr inbounds nuw i8, ptr %14, i64 32
  %24 = load ptr, ptr %23, align 8, !tbaa !14
  call void @free(ptr noundef %24) #19
  %25 = getelementptr inbounds nuw i8, ptr %14, i64 40
  %26 = load ptr, ptr %25, align 8, !tbaa !15
  call void @free(ptr noundef %26) #19
  call void @free(ptr noundef nonnull %14) #19
  br label %54

27:                                               ; preds = %18
  %28 = call ptr @cli_hashstream(ptr noundef %0, ptr noundef null, i32 noundef 1) #19
  %29 = icmp eq ptr %28, null
  br i1 %29, label %30, label %38

30:                                               ; preds = %27
  call void (ptr, ...) @cli_dbgmsg(ptr noundef nonnull @.str.49) #19
  %31 = load ptr, ptr %14, align 8, !tbaa !3
  call void @free(ptr noundef %31) #19
  %32 = getelementptr inbounds nuw i8, ptr %14, i64 24
  %33 = load ptr, ptr %32, align 8, !tbaa !13
  call void @free(ptr noundef %33) #19
  %34 = getelementptr inbounds nuw i8, ptr %14, i64 32
  %35 = load ptr, ptr %34, align 8, !tbaa !14
  call void @free(ptr noundef %35) #19
  %36 = getelementptr inbounds nuw i8, ptr %14, i64 40
  %37 = load ptr, ptr %36, align 8, !tbaa !15
  call void @free(ptr noundef %37) #19
  call void @free(ptr noundef nonnull %14) #19
  br label %54

38:                                               ; preds = %27
  call void (ptr, ...) @cli_dbgmsg(ptr noundef nonnull @.str.50, ptr noundef nonnull %28) #19
  %39 = getelementptr inbounds nuw i8, ptr %14, i64 24
  %40 = load ptr, ptr %39, align 8, !tbaa !13
  %41 = call i32 @strncmp(ptr noundef nonnull dereferenceable(1) %28, ptr noundef nonnull dereferenceable(1) %40, i64 noundef 32) #18
  %.not35 = icmp eq i32 %41, 0
  br i1 %.not35, label %48, label %42

42:                                               ; preds = %38
  call void (ptr, ...) @cli_dbgmsg(ptr noundef nonnull @.str.51) #19
  call void @free(ptr noundef nonnull %28) #19
  %43 = load ptr, ptr %14, align 8, !tbaa !3
  call void @free(ptr noundef %43) #19
  call void @free(ptr noundef nonnull %40) #19
  %44 = getelementptr inbounds nuw i8, ptr %14, i64 32
  %45 = load ptr, ptr %44, align 8, !tbaa !14
  call void @free(ptr noundef %45) #19
  %46 = getelementptr inbounds nuw i8, ptr %14, i64 40
  %47 = load ptr, ptr %46, align 8, !tbaa !15
  call void @free(ptr noundef %47) #19
  call void @free(ptr noundef nonnull %14) #19
  br label %54

48:                                               ; preds = %38
  %49 = getelementptr inbounds nuw i8, ptr %14, i64 32
  %50 = load ptr, ptr %49, align 8, !tbaa !14
  %51 = call i32 @cli_versig(ptr noundef nonnull %28, ptr noundef %50) #19
  %.not36 = icmp eq i32 %51, 0
  br i1 %.not36, label %53, label %52

52:                                               ; preds = %48
  call void (ptr, ...) @cli_dbgmsg(ptr noundef nonnull @.str.52) #19
  call void @free(ptr noundef nonnull %28) #19
  call void @cl_cvdfree(ptr noundef nonnull %14)
  br label %54

53:                                               ; preds = %48
  call void @free(ptr noundef nonnull %28) #19
  call void @cl_cvdfree(ptr noundef nonnull %14)
  br label %54

54:                                               ; preds = %.critedge, %53, %52, %42, %30, %19, %7
  %.028 = phi i32 [ 5, %7 ], [ 0, %19 ], [ 20, %30 ], [ 6, %42 ], [ 6, %52 ], [ 0, %53 ], [ 5, %.critedge ]
  call void @llvm.lifetime.end.p0(i64 513, ptr nonnull %4) #19
  ret i32 %.028
}